target datalayout = "e-m:e-p270:32:32-p271:32:32-p272:64:64-i64:64-i128:128-f80:128-n8:16:32:64-S128"
target triple = "x86_64-unknown-linux-gnu"

%"struct.node::AssertionInfo" = type { ptr, ptr, ptr }
%"class.v8::IndirectHandleBase" = type { ptr }
%"class.v8::LocalBase.299" = type { %"class.v8::IndirectHandleBase" }
%"class.v8::Local.298" = type { %"class.v8::LocalBase.299" }

@_ZZN4node6fs_dir9DirHandle3NewERKN2v820FunctionCallbackInfoINS2_5ValueEEEE4args = internal constant %"struct.node::AssertionInfo" { ptr @.str, ptr @.str.1, ptr @.str.2 }, align 8

; Function Attrs: mustprogress nounwind uwtable
define dso_local void @_ZN4node6fs_dir9DirHandle3NewERKN2v820FunctionCallbackInfoINS2_5ValueEEE(ptr noundef nonnull align 8 dereferenceable(20) %args) #4 align 2 {
entry:
  %value.addr.i30 = alloca i64, align 8
  %shift_bits.i = alloca i32, align 4
  %heap_object_ptr.addr.i.i24 = alloca i64, align 8
  %offset.addr.i.i25 = alloca i32, align 4
  %addr.i.i26 = alloca i64, align 8
  %heap_object_ptr.addr.i = alloca i64, align 8
  %offset.addr.i = alloca i32, align 4
  %value.addr.i22 = alloca i64, align 8
  %obj.addr.i = alloca i64, align 8
  %value.addr.i20 = alloca i64, align 8
  %value.addr.i = alloca ptr, align 8
  %heap_object_ptr.addr.i.i = alloca i64, align 8
  %offset.addr.i.i = alloca i32, align 4
  %addr.i.i = alloca i64, align 8
  %heap_object_ptr.addr.i2.i.i = alloca i64, align 8
  %offset.addr.i3.i.i = alloca i32, align 4
  %addr.i.i.i = alloca i64, align 8
  %heap_object_ptr.addr.i.i.i = alloca i64, align 8
  %offset.addr.i.i.i = alloca i32, align 4
  %obj.addr.i.i = alloca i64, align 8
  %map.i.i = alloca i64, align 8
  %retval.i16 = alloca i1, align 1
  %this.addr.i17 = alloca ptr, align 8
  %obj.i = alloca i64, align 8
  %this.addr.i14 = alloca ptr, align 8
  %this.addr.i.i9.i = alloca ptr, align 8
  %location.addr.i.i.i = alloca ptr, align 8
  %this.addr.i.i10 = alloca ptr, align 8
  %location.addr.i.i = alloca ptr, align 8
  %retval.i7.i = alloca %"class.v8::LocalBase.299", align 8
  %slot.addr.i8.i = alloca ptr, align 8
  %this.addr.i.i.i = alloca ptr, align 8
  %other.addr.i.i.i = alloca ptr, align 8
  %retval.i.i = alloca %"class.v8::Local.298", align 8
  %slot.addr.i.i = alloca ptr, align 8
  %ref.tmp.i.i = alloca %"class.v8::LocalBase.299", align 8
  %retval.i = alloca %"class.v8::Local.298", align 8
  %this.addr.i11 = alloca ptr, align 8
  %slot.addr.i = alloca ptr, align 8
  %this.addr.i.i = alloca ptr, align 8
  %this.addr.i8 = alloca ptr, align 8
  %this.addr.i5 = alloca ptr, align 8
  %this.addr.i = alloca ptr, align 8
  %ref.tmp.i = alloca %"class.v8::Local.298", align 8
  %args.addr = alloca ptr, align 8
  store ptr %args, ptr %args.addr, align 8
  br label %do.body

do.body:                                          ; preds = %entry
  %0 = load ptr, ptr %args.addr, align 8
  store ptr %0, ptr %this.addr.i, align 8
  %this1.i = load ptr, ptr %this.addr.i, align 8
  store ptr %this1.i, ptr %this.addr.i11, align 8
  %this1.i12 = load ptr, ptr %this.addr.i11, align 8
  %1 = load ptr, ptr %this1.i12, align 8
  %arrayidx.i = getelementptr inbounds i64, ptr %1, i64 5
  store ptr %arrayidx.i, ptr %slot.addr.i.i, align 8
  %2 = load ptr, ptr %slot.addr.i.i, align 8
  store ptr %2, ptr %slot.addr.i8.i, align 8
  %3 = load ptr, ptr %slot.addr.i8.i, align 8
  store ptr %retval.i7.i, ptr %this.addr.i.i10, align 8
  store ptr %3, ptr %location.addr.i.i, align 8
  %this1.i.i13 = load ptr, ptr %this.addr.i.i10, align 8
  %4 = load ptr, ptr %location.addr.i.i, align 8
  store ptr %this1.i.i13, ptr %this.addr.i.i9.i, align 8
  store ptr %4, ptr %location.addr.i.i.i, align 8
  %this1.i.i10.i = load ptr, ptr %this.addr.i.i9.i, align 8
  %5 = load ptr, ptr %location.addr.i.i.i, align 8
  store ptr %5, ptr %this1.i.i10.i, align 8
  %6 = load ptr, ptr %retval.i7.i, align 8
  store ptr %6, ptr %ref.tmp.i.i, align 8
  store ptr %retval.i.i, ptr %this.addr.i.i.i, align 8
  store ptr %ref.tmp.i.i, ptr %other.addr.i.i.i, align 8
  %this1.i.i.i = load ptr, ptr %this.addr.i.i.i, align 8
  %7 = load ptr, ptr %other.addr.i.i.i, align 8
  call void @llvm.memcpy.p0.p0.i64(ptr align 8 %this1.i.i.i, ptr align 8 %7, i64 8, i1 false)
  %8 = load ptr, ptr %retval.i.i, align 8
  store ptr %8, ptr %retval.i, align 8
  %9 = load ptr, ptr %retval.i, align 8
  store ptr %9, ptr %ref.tmp.i, align 8
  store ptr %ref.tmp.i, ptr %this.addr.i5, align 8
  %this1.i6 = load ptr, ptr %this.addr.i5, align 8
  store ptr %this1.i6, ptr %this.addr.i8, align 8
  %this1.i9 = load ptr, ptr %this.addr.i8, align 8
  store ptr %this1.i9, ptr %this.addr.i.i, align 8
  %this1.i.i = load ptr, ptr %this.addr.i.i, align 8
  %10 = load ptr, ptr %this1.i.i, align 8
  store ptr %10, ptr %slot.addr.i, align 8
  %11 = load ptr, ptr %slot.addr.i, align 8
  store ptr %11, ptr %this.addr.i14, align 8
  %this1.i15 = load ptr, ptr %this.addr.i14, align 8
  store ptr %this1.i15, ptr %this.addr.i17, align 8
  %this1.i18 = load ptr, ptr %this.addr.i17, align 8
  store ptr %this1.i18, ptr %value.addr.i, align 8
  %12 = load ptr, ptr %value.addr.i, align 8
  %13 = load i64, ptr %12, align 8
  store i64 %13, ptr %obj.i, align 8
  %14 = load i64, ptr %obj.i, align 8
  store i64 %14, ptr %value.addr.i20, align 8
  %15 = load i64, ptr %value.addr.i20, align 8
  %and.i = and i64 %15, 3
  %cmp.i21 = icmp eq i64 %and.i, 1
  br i1 %cmp.i21, label %if.end.i, label %if.then.i

if.then.i:                                        ; preds = %do.body
  store i1 false, ptr %retval.i16, align 1
  br label %_ZNK2v85Value16QuickIsUndefinedEv.exit

if.end.i:                                         ; preds = %do.body
  %16 = load i64, ptr %obj.i, align 8
  store i64 %16, ptr %obj.addr.i.i, align 8
  %17 = load i64, ptr %obj.addr.i.i, align 8
  store i64 %17, ptr %heap_object_ptr.addr.i.i.i, align 8
  store i32 0, ptr %offset.addr.i.i.i, align 4
  %18 = load i64, ptr %heap_object_ptr.addr.i.i.i, align 8
  %19 = load i32, ptr %offset.addr.i.i.i, align 4
  store i64 %18, ptr %heap_object_ptr.addr.i2.i.i, align 8
  store i32 %19, ptr %offset.addr.i3.i.i, align 4
  %20 = load i64, ptr %heap_object_ptr.addr.i2.i.i, align 8
  %21 = load i32, ptr %offset.addr.i3.i.i, align 4
  %conv.i.i.i = sext i32 %21 to i64
  %add.i.i.i = add i64 %20, %conv.i.i.i
  %sub.i.i.i = sub i64 %add.i.i.i, 1
  store i64 %sub.i.i.i, ptr %addr.i.i.i, align 8
  %22 = load i64, ptr %addr.i.i.i, align 8
  %23 = inttoptr i64 %22 to ptr
  %24 = load i64, ptr %23, align 8
  store i64 %24, ptr %map.i.i, align 8
  %25 = load i64, ptr %map.i.i, align 8
  store i64 %25, ptr %heap_object_ptr.addr.i.i, align 8
  store i32 12, ptr %offset.addr.i.i, align 4
  %26 = load i64, ptr %heap_object_ptr.addr.i.i, align 8
  %27 = load i32, ptr %offset.addr.i.i, align 4
  %conv.i8.i = sext i32 %27 to i64
  %add.i.i = add i64 %26, %conv.i8.i
  %sub.i.i = sub i64 %add.i.i, 1
  store i64 %sub.i.i, ptr %addr.i.i, align 8
  %28 = load i64, ptr %addr.i.i, align 8
  %29 = inttoptr i64 %28 to ptr
  %30 = load i16, ptr %29, align 2
  %conv.i.i = zext i16 %30 to i32
  %cmp.i = icmp ne i32 %conv.i.i, 131
  br i1 %cmp.i, label %if.then4.i, label %if.end5.i

if.then4.i:                                       ; preds = %if.end.i
  store i1 false, ptr %retval.i16, align 1
  br label %_ZNK2v85Value16QuickIsUndefinedEv.exit

if.end5.i:                                        ; preds = %if.end.i
  %31 = load i64, ptr %obj.i, align 8
  store i64 %31, ptr %obj.addr.i, align 8
  %32 = load i64, ptr %obj.addr.i, align 8
  store i64 %32, ptr %heap_object_ptr.addr.i, align 8
  store i32 40, ptr %offset.addr.i, align 4
  %33 = load i64, ptr %heap_object_ptr.addr.i, align 8
  %34 = load i32, ptr %offset.addr.i, align 4
  store i64 %33, ptr %heap_object_ptr.addr.i.i24, align 8
  store i32 %34, ptr %offset.addr.i.i25, align 4
  %35 = load i64, ptr %heap_object_ptr.addr.i.i24, align 8
  %36 = load i32, ptr %offset.addr.i.i25, align 4
  %conv.i.i27 = sext i32 %36 to i64
  %add.i.i28 = add i64 %35, %conv.i.i27
  %sub.i.i29 = sub i64 %add.i.i28, 1
  store i64 %sub.i.i29, ptr %addr.i.i26, align 8
  %37 = load i64, ptr %addr.i.i26, align 8
  %38 = inttoptr i64 %37 to ptr
  %39 = load i64, ptr %38, align 8
  store i64 %39, ptr %value.addr.i22, align 8
  %40 = load i64, ptr %value.addr.i22, align 8
  store i64 %40, ptr %value.addr.i30, align 8
  store i32 32, ptr %shift_bits.i, align 4
  %41 = load i64, ptr %value.addr.i30, align 8
  %42 = load i32, ptr %shift_bits.i, align 4
  %sh_prom.i = zext i32 %42 to i64
  %shr.i = ashr i64 %41, %sh_prom.i
  %conv.i = trunc i64 %shr.i to i32
  %cmp7.i = icmp eq i32 %conv.i, 5
  store i1 %cmp7.i, ptr %retval.i16, align 1
  br label %_ZNK2v85Value16QuickIsUndefinedEv.exit

_ZNK2v85Value16QuickIsUndefinedEv.exit:           ; preds = %if.end5.i, %if.then4.i, %if.then.i
  %43 = load i1, ptr %retval.i16, align 1
  %lnot.i = xor i1 %43, true
  %lnot = xor i1 %lnot.i, true
  %lnot1 = xor i1 %lnot, true
  %lnot2 = xor i1 %lnot1, true
  br i1 %lnot2, label %if.then, label %if.end

if.then:                                          ; preds = %_ZNK2v85Value16QuickIsUndefinedEv.exit
  br label %do.body3

do.body3:                                         ; preds = %if.then
  call void @_ZN4node6AssertERKNS_13AssertionInfoE(ptr noundef nonnull align 8 dereferenceable(24) @_ZZN4node6fs_dir9DirHandle3NewERKN2v820FunctionCallbackInfoINS2_5ValueEEEE4args)
  call void @abort() #16
  unreachable

do.end:                                           ; No predecessors!
  br label %if.end

if.end:                                           ; preds = %do.end, %_ZNK2v85Value16QuickIsUndefinedEv.exit
  br label %do.end4

do.end4:                                          ; preds = %if.end
  ret void
}