; Function Attrs: mustprogress nounwind uwtable
define dso_local void @_ZN4node6fs_dir9DirHandle3NewERKN2v820FunctionCallbackInfoINS2_5ValueEEE(ptr nocapture noundef nonnull readonly align 8 dereferenceable(20) %args) #3 align 2 {
entry:
  %0 = load ptr, ptr %args, align 8
  %arrayidx.i = getelementptr inbounds i8, ptr %0, i64 40
  %1 = load i64, ptr %arrayidx.i, align 8
  %and.i = and i64 %1, 3
  %cmp.i21 = icmp eq i64 %and.i, 1
  br i1 %cmp.i21, label %if.end.i, label %do.end4

if.end.i:                                         ; preds = %entry
  %sub.i.i.i = add nsw i64 %1, -1
  %2 = inttoptr i64 %sub.i.i.i to ptr
  %3 = load i64, ptr %2, align 8
  %sub.i.i = add i64 %3, 11
  %4 = inttoptr i64 %sub.i.i to ptr
  %5 = load i16, ptr %4, align 2
  %cmp.i.not = icmp eq i16 %5, 131
  br i1 %cmp.i.not, label %if.end5.i, label %do.end4

if.end5.i:                                        ; preds = %if.end.i
  %sub.i.i29 = add i64 %1, 39
  %6 = inttoptr i64 %sub.i.i29 to ptr
  %7 = load i64, ptr %6, align 8
  %shr.i.mask = and i64 %7, -4294967296
  %cmp7.i = icmp eq i64 %shr.i.mask, 21474836480
  br i1 %cmp7.i, label %do.body3, label %do.end4

do.body3:                                         ; preds = %if.end5.i
  tail call void @_ZN4node6AssertERKNS_13AssertionInfoE(ptr noundef nonnull align 8 dereferenceable(24) @_ZZN4node6fs_dir9DirHandle3NewERKN2v820FunctionCallbackInfoINS2_5ValueEEEE4args) #20
  tail call void @abort() #22
  unreachable

do.end4:                                          ; preds = %entry, %if.end.i, %if.end5.i
  ret void
}